; Function Attrs: mustprogress nofree norecurse nosync nounwind willreturn memory(argmem: write) uwtable
define dso_local void @_ZN4node4quic3CIDC2Ev(ptr noundef nonnull align 8 dereferenceable(48) %this) unnamed_addr #3 align 2 {
entry:
  store ptr getelementptr inbounds ({ [10 x ptr] }, ptr @_ZTVN4node4quic3CIDE, i64 0, i32 0, i64 2), ptr %this, align 8
  %ptr_ = getelementptr inbounds i8, ptr %this, i64 40
  %cid_2 = getelementptr inbounds i8, ptr %this, i64 8
  store ptr %cid_2, ptr %ptr_, align 8
  store i64 0, ptr %cid_2, align 8
  ret void
}